; Function Attrs: mustprogress uwtable
define void @_ZN7httplib10ClientImpl5PatchERKNSt7__cxx1112basic_stringIcSt11char_traitsIcESaIcEEE(ptr noalias sret(%"class.httplib::Result") align 8 %agg.result, ptr noundef nonnull align 8 dereferenceable(1000) %this, ptr noundef nonnull align 8 dereferenceable(32) %path) local_unnamed_addr #5 align 2 personality ptr @__gxx_personality_v0 {
entry:
  %ref.tmp.i = alloca %"class.std::multimap", align 8
  %ref.tmp = alloca %"class.std::__cxx11::basic_string", align 8
  %ref.tmp2 = alloca %"class.std::__cxx11::basic_string", align 8
  call void @_ZNSt7__cxx1112basic_stringIcSt11char_traitsIcESaIcEEC1Ev(ptr noundef nonnull align 8 dereferenceable(32) %ref.tmp) #37
  call void @_ZNSt7__cxx1112basic_stringIcSt11char_traitsIcESaIcEEC1Ev(ptr noundef nonnull align 8 dereferenceable(32) %ref.tmp2) #37
  call void @llvm.lifetime.start.p0(i64 48, ptr nonnull %ref.tmp.i)
  %0 = getelementptr inbounds i8, ptr %ref.tmp.i, i64 8
  %_M_left.i.i.i.i.i.i = getelementptr inbounds i8, ptr %ref.tmp.i, i64 24
  call void @llvm.memset.p0.i64(ptr noundef nonnull align 8 dereferenceable(24) %ref.tmp.i, i8 0, i64 24, i1 false), !noalias !257
  store ptr %0, ptr %_M_left.i.i.i.i.i.i, align 8, !noalias !257
  %_M_right.i.i.i.i.i.i = getelementptr inbounds i8, ptr %ref.tmp.i, i64 32
  store ptr %0, ptr %_M_right.i.i.i.i.i.i, align 8, !noalias !257
  %_M_node_count.i.i.i.i.i.i = getelementptr inbounds i8, ptr %ref.tmp.i, i64 40
  store i64 0, ptr %_M_node_count.i.i.i.i.i.i, align 8, !noalias !257
  invoke void @_ZN7httplib10ClientImpl5PatchERKNSt7__cxx1112basic_stringIcSt11char_traitsIcESaIcEEERKSt8multimapIS6_S6_NS_6detail2ciESaISt4pairIS7_S6_EEES8_S8_(ptr sret(%"class.httplib::Result") align 8 %agg.result, ptr noundef nonnull align 8 dereferenceable(1000) %this, ptr noundef nonnull align 8 dereferenceable(32) %path, ptr noundef nonnull align 8 dereferenceable(48) %ref.tmp.i, ptr noundef nonnull align 8 dereferenceable(32) %ref.tmp, ptr noundef nonnull align 8 dereferenceable(32) %ref.tmp2)
          to label %invoke.cont.i unwind label %lpad.i

invoke.cont.i:                                    ; preds = %entry
  %_M_parent.i.i.i.i.i.i = getelementptr inbounds i8, ptr %ref.tmp.i, i64 16
  %1 = load ptr, ptr %_M_parent.i.i.i.i.i.i, align 8, !noalias !257
  invoke void @_ZNSt8_Rb_treeINSt7__cxx1112basic_stringIcSt11char_traitsIcESaIcEEESt4pairIKS5_S5_ESt10_Select1stIS8_EN7httplib6detail2ciESaIS8_EE8_M_eraseEPSt13_Rb_tree_nodeIS8_E(ptr noundef nonnull align 8 dereferenceable(48) %ref.tmp.i, ptr noundef %1)
          to label %invoke.cont unwind label %terminate.lpad.i.i.i

terminate.lpad.i.i.i:                             ; preds = %invoke.cont.i
  %2 = landingpad { ptr, i32 }
          catch ptr null
  %3 = extractvalue { ptr, i32 } %2, 0
  call void @__clang_call_terminate(ptr %3) #40
  unreachable

lpad.i:                                           ; preds = %entry
  %4 = landingpad { ptr, i32 }
          cleanup
  call void @_ZNSt8multimapINSt7__cxx1112basic_stringIcSt11char_traitsIcESaIcEEES5_N7httplib6detail2ciESaISt4pairIKS5_S5_EEED2Ev(ptr noundef nonnull align 8 dereferenceable(48) %ref.tmp.i) #37
  call void @_ZNSt7__cxx1112basic_stringIcSt11char_traitsIcESaIcEED1Ev(ptr noundef nonnull align 8 dereferenceable(32) %ref.tmp2) #37
  call void @_ZNSt7__cxx1112basic_stringIcSt11char_traitsIcESaIcEED1Ev(ptr noundef nonnull align 8 dereferenceable(32) %ref.tmp) #37
  resume { ptr, i32 } %4

invoke.cont:                                      ; preds = %invoke.cont.i
  call void @llvm.lifetime.end.p0(i64 48, ptr nonnull %ref.tmp.i)
  call void @_ZNSt7__cxx1112basic_stringIcSt11char_traitsIcESaIcEED1Ev(ptr noundef nonnull align 8 dereferenceable(32) %ref.tmp2) #37
  call void @_ZNSt7__cxx1112basic_stringIcSt11char_traitsIcESaIcEED1Ev(ptr noundef nonnull align 8 dereferenceable(32) %ref.tmp) #37
  ret void
}